target datalayout = "e-m:e-p270:32:32-p271:32:32-p272:64:64-i64:64-i128:128-f80:128-n8:16:32:64-S128"
target triple = "x86_64-pc-linux-gnu"

%struct.dictDefragFunctions = type { ptr, ptr, ptr }
%struct.redisObject = type { i32, i32, ptr }

@__const.scanLaterHash.defragfns = private unnamed_addr constant %struct.dictDefragFunctions { ptr @activeDefragAlloc, ptr null, ptr @activeDefragSds }, align 8

; Function Attrs: nounwind uwtable
define dso_local void @scanLaterHash(ptr noundef %0, ptr noundef %1) #0 {
  %3 = alloca ptr, align 8
  %4 = alloca ptr, align 8
  %5 = alloca ptr, align 8
  %6 = alloca %struct.dictDefragFunctions, align 8
  store ptr %0, ptr %3, align 8, !tbaa !42
  store ptr %1, ptr %4, align 8, !tbaa !111
  %7 = load ptr, ptr %3, align 8, !tbaa !42
  %8 = load i32, ptr %7, align 8
  %9 = and i32 %8, 15
  %10 = icmp ne i32 %9, 4
  br i1 %10, label %17, label %11

11:                                               ; preds = %2
  %12 = load ptr, ptr %3, align 8, !tbaa !42
  %13 = load i32, ptr %12, align 8
  %14 = lshr i32 %13, 4
  %15 = and i32 %14, 15
  %16 = icmp ne i32 %15, 2
  br i1 %16, label %17, label %18

17:                                               ; preds = %11, %2
  br label %28

18:                                               ; preds = %11
  call void @llvm.lifetime.start.p0(i64 8, ptr %5) #10
  %19 = load ptr, ptr %3, align 8, !tbaa !42
  %20 = getelementptr inbounds nuw %struct.redisObject, ptr %19, i32 0, i32 2
  %21 = load ptr, ptr %20, align 8, !tbaa !47
  store ptr %21, ptr %5, align 8, !tbaa !53
  call void @llvm.lifetime.start.p0(i64 24, ptr %6) #10
  call void @llvm.memcpy.p0.p0.i64(ptr align 8 %6, ptr align 8 @__const.scanLaterHash.defragfns, i64 24, i1 false)
  %22 = load ptr, ptr %5, align 8, !tbaa !53
  %23 = load ptr, ptr %4, align 8, !tbaa !111
  %24 = load i64, ptr %23, align 8, !tbaa !39
  %25 = load ptr, ptr %5, align 8, !tbaa !53
  %26 = call i64 @dictScanDefrag(ptr noundef %22, i64 noundef %24, ptr noundef @activeDefragHfieldDictCallback, ptr noundef %6, ptr noundef %25)
  %27 = load ptr, ptr %4, align 8, !tbaa !111
  store i64 %26, ptr %27, align 8, !tbaa !39
  call void @llvm.lifetime.end.p0(i64 24, ptr %6) #10
  call void @llvm.lifetime.end.p0(i64 8, ptr %5) #10
  br label %28

28:                                               ; preds = %18, %17
  ret void
}