; Function Attrs: nounwind uwtable
define dso_local void @scanLaterHash(ptr noundef readonly captures(none) %0, ptr noundef captures(none) %1) local_unnamed_addr #0 {
  %3 = alloca %struct.dictDefragFunctions, align 8
  %4 = load i32, ptr %0, align 8
  %5 = and i32 %4, 255
  %or.cond = icmp eq i32 %5, 36
  br i1 %or.cond, label %6, label %11

6:                                                ; preds = %2
  %7 = getelementptr inbounds nuw i8, ptr %0, i64 8
  %8 = load ptr, ptr %7, align 8, !tbaa !41
  call void @llvm.lifetime.start.p0(i64 24, ptr nonnull %3) #10
  call void @llvm.memcpy.p0.p0.i64(ptr noundef nonnull align 8 dereferenceable(24) %3, ptr noundef nonnull align 8 dereferenceable(24) @__const.scanLaterHash.defragfns, i64 24, i1 false)
  %9 = load i64, ptr %1, align 8, !tbaa !94
  %10 = call i64 @dictScanDefrag(ptr noundef %8, i64 noundef %9, ptr noundef nonnull @activeDefragHfieldDictCallback, ptr noundef nonnull %3, ptr noundef %8) #10
  store i64 %10, ptr %1, align 8, !tbaa !94
  call void @llvm.lifetime.end.p0(i64 24, ptr nonnull %3) #10
  br label %11

11:                                               ; preds = %2, %6
  ret void
}